target datalayout = "e-m:e-p270:32:32-p271:32:32-p272:64:64-i64:64-i128:128-f80:128-n8:16:32:64-S128"
target triple = "x86_64-pc-linux-gnu"

%struct.ec_group_st = type { ptr, ptr, %struct.bignum_st, %struct.bignum_st, i32, ptr, %struct.bignum_st, %struct.bignum_st, %struct.bignum_st, i32, ptr, %struct.bignum_st }
%struct.bignum_st = type { ptr, i32, i32, i32, i32 }
%struct.ec_method_st = type { ptr, ptr, ptr, ptr, ptr, ptr, ptr, ptr, ptr, ptr, ptr }
%struct.ec_point_st = type { ptr, %struct.bignum_st, %struct.bignum_st, %struct.bignum_st }

; Function Attrs: nounwind uwtable
define hidden i32 @ec_GFp_simple_get_Jprojective_coordinates_GFp(ptr noundef %0, ptr noundef %1, ptr noundef %2, ptr noundef %3, ptr noundef %4, ptr noundef %5) #0 {
  %7 = alloca i32, align 4
  %8 = alloca ptr, align 8
  %9 = alloca ptr, align 8
  %10 = alloca ptr, align 8
  %11 = alloca ptr, align 8
  %12 = alloca ptr, align 8
  %13 = alloca ptr, align 8
  %14 = alloca ptr, align 8
  %15 = alloca i32, align 4
  %16 = alloca i32, align 4
  store ptr %0, ptr %8, align 8, !tbaa !6
  store ptr %1, ptr %9, align 8, !tbaa !28
  store ptr %2, ptr %10, align 8, !tbaa !19
  store ptr %3, ptr %11, align 8, !tbaa !19
  store ptr %4, ptr %12, align 8, !tbaa !19
  store ptr %5, ptr %13, align 8, !tbaa !21
  call void @llvm.lifetime.start.p0(i64 8, ptr %14) #6
  store ptr null, ptr %14, align 8, !tbaa !21
  call void @llvm.lifetime.start.p0(i64 4, ptr %15) #6
  store i32 0, ptr %15, align 4, !tbaa !23
  %17 = load ptr, ptr %8, align 8, !tbaa !6
  %18 = getelementptr inbounds nuw %struct.ec_group_st, ptr %17, i32 0, i32 0
  %19 = load ptr, ptr %18, align 8, !tbaa !24
  %20 = getelementptr inbounds nuw %struct.ec_method_st, ptr %19, i32 0, i32 10
  %21 = load ptr, ptr %20, align 8, !tbaa !27
  %22 = icmp ne ptr %21, null
  br i1 %22, label %23, label %84

23:                                               ; preds = %6
  %24 = load ptr, ptr %13, align 8, !tbaa !21
  %25 = icmp eq ptr %24, null
  br i1 %25, label %26, label %32

26:                                               ; preds = %23
  %27 = call ptr @BN_CTX_new()
  store ptr %27, ptr %14, align 8, !tbaa !21
  store ptr %27, ptr %13, align 8, !tbaa !21
  %28 = load ptr, ptr %13, align 8, !tbaa !21
  %29 = icmp eq ptr %28, null
  br i1 %29, label %30, label %31

30:                                               ; preds = %26
  store i32 0, ptr %7, align 4
  store i32 1, ptr %16, align 4
  br label %119

31:                                               ; preds = %26
  br label %32

32:                                               ; preds = %31, %23
  %33 = load ptr, ptr %10, align 8, !tbaa !19
  %34 = icmp ne ptr %33, null
  br i1 %34, label %35, label %49

35:                                               ; preds = %32
  %36 = load ptr, ptr %8, align 8, !tbaa !6
  %37 = getelementptr inbounds nuw %struct.ec_group_st, ptr %36, i32 0, i32 0
  %38 = load ptr, ptr %37, align 8, !tbaa !24
  %39 = getelementptr inbounds nuw %struct.ec_method_st, ptr %38, i32 0, i32 10
  %40 = load ptr, ptr %39, align 8, !tbaa !27
  %41 = load ptr, ptr %8, align 8, !tbaa !6
  %42 = load ptr, ptr %10, align 8, !tbaa !19
  %43 = load ptr, ptr %9, align 8, !tbaa !28
  %44 = getelementptr inbounds nuw %struct.ec_point_st, ptr %43, i32 0, i32 1
  %45 = load ptr, ptr %13, align 8, !tbaa !21
  %46 = call i32 %40(ptr noundef %41, ptr noundef %42, ptr noundef %44, ptr noundef %45)
  %47 = icmp ne i32 %46, 0
  br i1 %47, label %49, label %48

48:                                               ; preds = %35
  br label %116

49:                                               ; preds = %35, %32
  %50 = load ptr, ptr %11, align 8, !tbaa !19
  %51 = icmp ne ptr %50, null
  br i1 %51, label %52, label %66

52:                                               ; preds = %49
  %53 = load ptr, ptr %8, align 8, !tbaa !6
  %54 = getelementptr inbounds nuw %struct.ec_group_st, ptr %53, i32 0, i32 0
  %55 = load ptr, ptr %54, align 8, !tbaa !24
  %56 = getelementptr inbounds nuw %struct.ec_method_st, ptr %55, i32 0, i32 10
  %57 = load ptr, ptr %56, align 8, !tbaa !27
  %58 = load ptr, ptr %8, align 8, !tbaa !6
  %59 = load ptr, ptr %11, align 8, !tbaa !19
  %60 = load ptr, ptr %9, align 8, !tbaa !28
  %61 = getelementptr inbounds nuw %struct.ec_point_st, ptr %60, i32 0, i32 2
  %62 = load ptr, ptr %13, align 8, !tbaa !21
  %63 = call i32 %57(ptr noundef %58, ptr noundef %59, ptr noundef %61, ptr noundef %62)
  %64 = icmp ne i32 %63, 0
  br i1 %64, label %66, label %65

65:                                               ; preds = %52
  br label %116

66:                                               ; preds = %52, %49
  %67 = load ptr, ptr %12, align 8, !tbaa !19
  %68 = icmp ne ptr %67, null
  br i1 %68, label %69, label %83

69:                                               ; preds = %66
  %70 = load ptr, ptr %8, align 8, !tbaa !6
  %71 = getelementptr inbounds nuw %struct.ec_group_st, ptr %70, i32 0, i32 0
  %72 = load ptr, ptr %71, align 8, !tbaa !24
  %73 = getelementptr inbounds nuw %struct.ec_method_st, ptr %72, i32 0, i32 10
  %74 = load ptr, ptr %73, align 8, !tbaa !27
  %75 = load ptr, ptr %8, align 8, !tbaa !6
  %76 = load ptr, ptr %12, align 8, !tbaa !19
  %77 = load ptr, ptr %9, align 8, !tbaa !28
  %78 = getelementptr inbounds nuw %struct.ec_point_st, ptr %77, i32 0, i32 3
  %79 = load ptr, ptr %13, align 8, !tbaa !21
  %80 = call i32 %74(ptr noundef %75, ptr noundef %76, ptr noundef %78, ptr noundef %79)
  %81 = icmp ne i32 %80, 0
  br i1 %81, label %83, label %82

82:                                               ; preds = %69
  br label %116

83:                                               ; preds = %69, %66
  br label %115

84:                                               ; preds = %6
  %85 = load ptr, ptr %10, align 8, !tbaa !19
  %86 = icmp ne ptr %85, null
  br i1 %86, label %87, label %94

87:                                               ; preds = %84
  %88 = load ptr, ptr %10, align 8, !tbaa !19
  %89 = load ptr, ptr %9, align 8, !tbaa !28
  %90 = getelementptr inbounds nuw %struct.ec_point_st, ptr %89, i32 0, i32 1
  %91 = call ptr @BN_copy(ptr noundef %88, ptr noundef %90)
  %92 = icmp ne ptr %91, null
  br i1 %92, label %94, label %93

93:                                               ; preds = %87
  br label %116

94:                                               ; preds = %87, %84
  %95 = load ptr, ptr %11, align 8, !tbaa !19
  %96 = icmp ne ptr %95, null
  br i1 %96, label %97, label %104

97:                                               ; preds = %94
  %98 = load ptr, ptr %11, align 8, !tbaa !19
  %99 = load ptr, ptr %9, align 8, !tbaa !28
  %100 = getelementptr inbounds nuw %struct.ec_point_st, ptr %99, i32 0, i32 2
  %101 = call ptr @BN_copy(ptr noundef %98, ptr noundef %100)
  %102 = icmp ne ptr %101, null
  br i1 %102, label %104, label %103

103:                                              ; preds = %97
  br label %116

104:                                              ; preds = %97, %94
  %105 = load ptr, ptr %12, align 8, !tbaa !19
  %106 = icmp ne ptr %105, null
  br i1 %106, label %107, label %114

107:                                              ; preds = %104
  %108 = load ptr, ptr %12, align 8, !tbaa !19
  %109 = load ptr, ptr %9, align 8, !tbaa !28
  %110 = getelementptr inbounds nuw %struct.ec_point_st, ptr %109, i32 0, i32 3
  %111 = call ptr @BN_copy(ptr noundef %108, ptr noundef %110)
  %112 = icmp ne ptr %111, null
  br i1 %112, label %114, label %113

113:                                              ; preds = %107
  br label %116

114:                                              ; preds = %107, %104
  br label %115

115:                                              ; preds = %114, %83
  store i32 1, ptr %15, align 4, !tbaa !23
  br label %116

116:                                              ; preds = %115, %113, %103, %93, %82, %65, %48
  %117 = load ptr, ptr %14, align 8, !tbaa !21
  call void @BN_CTX_free(ptr noundef %117)
  %118 = load i32, ptr %15, align 4, !tbaa !23
  store i32 %118, ptr %7, align 4
  store i32 1, ptr %16, align 4
  br label %119

119:                                              ; preds = %116, %30
  call void @llvm.lifetime.end.p0(i64 4, ptr %15) #6
  call void @llvm.lifetime.end.p0(i64 8, ptr %14) #6
  %120 = load i32, ptr %7, align 4
  ret i32 %120
}