; Function Attrs: nounwind uwtable
define hidden range(i32 0, 2) i32 @ec_GFp_simple_get_Jprojective_coordinates_GFp(ptr noundef %0, ptr noundef %1, ptr noundef %2, ptr noundef %3, ptr noundef %4, ptr noundef %5) local_unnamed_addr #0 {
  %7 = load ptr, ptr %0, align 8, !tbaa !17
  %8 = getelementptr inbounds nuw i8, ptr %7, i64 80
  %9 = load ptr, ptr %8, align 8, !tbaa !20
  %.not = icmp eq ptr %9, null
  br i1 %.not, label %36, label %10

10:                                               ; preds = %6
  %11 = icmp eq ptr %5, null
  br i1 %11, label %12, label %15

12:                                               ; preds = %10
  %13 = tail call ptr @BN_CTX_new() #5
  %14 = icmp eq ptr %13, null
  br i1 %14, label %50, label %15

15:                                               ; preds = %12, %10
  %.033 = phi ptr [ %13, %12 ], [ %5, %10 ]
  %.032 = phi ptr [ %13, %12 ], [ null, %10 ]
  %.not49 = icmp eq ptr %2, null
  br i1 %.not49, label %22, label %16

16:                                               ; preds = %15
  %17 = load ptr, ptr %0, align 8, !tbaa !17
  %18 = getelementptr inbounds nuw i8, ptr %17, i64 80
  %19 = load ptr, ptr %18, align 8, !tbaa !20
  %20 = getelementptr inbounds nuw i8, ptr %1, i64 8
  %21 = tail call i32 %19(ptr noundef nonnull %0, ptr noundef nonnull %2, ptr noundef nonnull %20, ptr noundef nonnull %.033) #5
  %.not50 = icmp eq i32 %21, 0
  br i1 %.not50, label %49, label %22

22:                                               ; preds = %16, %15
  %.not51 = icmp eq ptr %3, null
  br i1 %.not51, label %29, label %23

23:                                               ; preds = %22
  %24 = load ptr, ptr %0, align 8, !tbaa !17
  %25 = getelementptr inbounds nuw i8, ptr %24, i64 80
  %26 = load ptr, ptr %25, align 8, !tbaa !20
  %27 = getelementptr inbounds nuw i8, ptr %1, i64 32
  %28 = tail call i32 %26(ptr noundef nonnull %0, ptr noundef nonnull %3, ptr noundef nonnull %27, ptr noundef nonnull %.033) #5
  %.not52 = icmp eq i32 %28, 0
  br i1 %.not52, label %49, label %29

29:                                               ; preds = %23, %22
  %.not53 = icmp eq ptr %4, null
  br i1 %.not53, label %48, label %30

30:                                               ; preds = %29
  %31 = load ptr, ptr %0, align 8, !tbaa !17
  %32 = getelementptr inbounds nuw i8, ptr %31, i64 80
  %33 = load ptr, ptr %32, align 8, !tbaa !20
  %34 = getelementptr inbounds nuw i8, ptr %1, i64 56
  %35 = tail call i32 %33(ptr noundef nonnull %0, ptr noundef nonnull %4, ptr noundef nonnull %34, ptr noundef nonnull %.033) #5
  %.not54 = icmp eq i32 %35, 0
  br i1 %.not54, label %49, label %48

36:                                               ; preds = %6
  %.not43 = icmp eq ptr %2, null
  br i1 %.not43, label %40, label %37

37:                                               ; preds = %36
  %38 = getelementptr inbounds nuw i8, ptr %1, i64 8
  %39 = tail call ptr @BN_copy(ptr noundef nonnull %2, ptr noundef nonnull %38) #5
  %.not44 = icmp eq ptr %39, null
  br i1 %.not44, label %49, label %40

40:                                               ; preds = %37, %36
  %.not45 = icmp eq ptr %3, null
  br i1 %.not45, label %44, label %41

41:                                               ; preds = %40
  %42 = getelementptr inbounds nuw i8, ptr %1, i64 32
  %43 = tail call ptr @BN_copy(ptr noundef nonnull %3, ptr noundef nonnull %42) #5
  %.not46 = icmp eq ptr %43, null
  br i1 %.not46, label %49, label %44

44:                                               ; preds = %41, %40
  %.not47 = icmp eq ptr %4, null
  br i1 %.not47, label %48, label %45

45:                                               ; preds = %44
  %46 = getelementptr inbounds nuw i8, ptr %1, i64 56
  %47 = tail call ptr @BN_copy(ptr noundef nonnull %4, ptr noundef nonnull %46) #5
  %.not48 = icmp eq ptr %47, null
  br i1 %.not48, label %49, label %48

48:                                               ; preds = %44, %45, %29, %30
  %.2 = phi ptr [ %.032, %30 ], [ %.032, %29 ], [ null, %45 ], [ null, %44 ]
  br label %49

49:                                               ; preds = %45, %41, %37, %30, %23, %16, %48
  %.1 = phi ptr [ %.2, %48 ], [ %.032, %30 ], [ %.032, %23 ], [ %.032, %16 ], [ null, %45 ], [ null, %41 ], [ null, %37 ]
  %.0 = phi i32 [ 1, %48 ], [ 0, %30 ], [ 0, %23 ], [ 0, %16 ], [ 0, %45 ], [ 0, %41 ], [ 0, %37 ]
  tail call void @BN_CTX_free(ptr noundef %.1) #5
  br label %50

50:                                               ; preds = %12, %49
  %.034 = phi i32 [ %.0, %49 ], [ 0, %12 ]
  ret i32 %.034
}